; Function Attrs: mustprogress uwtable
define dso_local void @_Z9lua_closeP9lua_State(ptr noundef readonly captures(none) %0) local_unnamed_addr #0 {
  %2 = getelementptr inbounds nuw i8, ptr %0, i64 24
  %3 = load ptr, ptr %2, align 8
  %4 = getelementptr inbounds nuw i8, ptr %3, i64 2808
  %5 = load ptr, ptr %4, align 8
  %6 = getelementptr inbounds nuw i8, ptr %5, i64 48
  %7 = load ptr, ptr %6, align 8
  tail call void @_Z10luaF_closeP9lua_StateP10lua_TValue(ptr noundef %5, ptr noundef %7)
  tail call fastcc void @_ZL11close_stateP9lua_State(ptr noundef %5)
  ret void
}